target datalayout = "e-m:e-p270:32:32-p271:32:32-p272:64:64-i64:64-i128:128-f80:128-n8:16:32:64-S128"
target triple = "x86_64-pc-linux-gnu"

%struct.TypeName = type { i32, ptr, i32, i8, i8, ptr, i32, ptr, i32 }
%struct.FormData_pg_type = type { i32, %struct.nameData, i32, i32, i16, i8, i8, i8, i8, i8, i8, i32, i32, i32, i32, i32, i32, i32, i32, i32, i32, i32, i8, i8, i8, i32, i32, i32, i32 }
%struct.nameData = type { [64 x i8] }
%struct.HeapTupleData = type { i32, %struct.ItemPointerData, i32, ptr }
%struct.ItemPointerData = type { %struct.BlockIdData, i16 }
%struct.BlockIdData = type { i16, i16 }
%struct.HeapTupleHeaderData = type { %union.anon, %struct.ItemPointerData, i16, i16, i8, [0 x i8] }
%union.anon = type { %struct.HeapTupleFields }
%struct.HeapTupleFields = type { i32, i32, %union.anon.0 }
%union.anon.0 = type { i32 }

@.str.1 = private unnamed_addr constant [13 x i8] c"parse_type.c\00", align 1
@.str.6 = private unnamed_addr constant [25 x i8] c"type \22%s\22 does not exist\00", align 1
@__func__.typenameType = private unnamed_addr constant [13 x i8] c"typenameType\00", align 1
@.str.7 = private unnamed_addr constant [26 x i8] c"type \22%s\22 is only a shell\00", align 1

; Function Attrs: inlinehint nounwind uwtable
define internal ptr @GETSTRUCT(ptr noundef %0) #3 {
  %2 = alloca ptr, align 8
  store ptr %0, ptr %2, align 8
  %3 = load ptr, ptr %2, align 8
  %4 = getelementptr inbounds nuw %struct.HeapTupleData, ptr %3, i32 0, i32 3
  %5 = load ptr, ptr %4, align 8
  %6 = load ptr, ptr %2, align 8
  %7 = getelementptr inbounds nuw %struct.HeapTupleData, ptr %6, i32 0, i32 3
  %8 = load ptr, ptr %7, align 8
  %9 = getelementptr inbounds nuw %struct.HeapTupleHeaderData, ptr %8, i32 0, i32 4
  %10 = load i8, ptr %9, align 2
  %11 = zext i8 %10 to i32
  %12 = sext i32 %11 to i64
  %13 = getelementptr inbounds i8, ptr %5, i64 %12
  ret ptr %13
}

; Function Attrs: nounwind uwtable
define dso_local ptr @LookupTypeName(ptr noundef %0, ptr noundef %1, ptr noundef %2, i1 noundef zeroext %3) #0 {
  %5 = alloca ptr, align 8
  %6 = alloca ptr, align 8
  %7 = alloca ptr, align 8
  %8 = alloca i8, align 1
  store ptr %0, ptr %5, align 8
  store ptr %1, ptr %6, align 8
  store ptr %2, ptr %7, align 8
  %9 = zext i1 %3 to i8
  store i8 %9, ptr %8, align 1
  %10 = load ptr, ptr %5, align 8
  %11 = load ptr, ptr %6, align 8
  %12 = load ptr, ptr %7, align 8
  %13 = load i8, ptr %8, align 1, !range !4, !noundef !5
  %14 = trunc i8 %13 to i1
  %15 = call ptr @LookupTypeNameExtended(ptr noundef %10, ptr noundef %11, ptr noundef %12, i1 noundef zeroext true, i1 noundef zeroext %14)
  ret ptr %15
}

; Function Attrs: nounwind uwtable
define dso_local ptr @typenameType(ptr noundef %0, ptr noundef %1, ptr noundef %2) #0 {
  %4 = alloca ptr, align 8
  %5 = alloca ptr, align 8
  %6 = alloca ptr, align 8
  %7 = alloca ptr, align 8
  store ptr %0, ptr %4, align 8
  store ptr %1, ptr %5, align 8
  store ptr %2, ptr %6, align 8
  call void @llvm.lifetime.start.p0(i64 8, ptr %7) #7
  %8 = load ptr, ptr %4, align 8
  %9 = load ptr, ptr %5, align 8
  %10 = load ptr, ptr %6, align 8
  %11 = call ptr @LookupTypeName(ptr noundef %8, ptr noundef %9, ptr noundef %10, i1 noundef zeroext false)
  store ptr %11, ptr %7, align 8
  %12 = load ptr, ptr %7, align 8
  %13 = icmp eq ptr %12, null
  br i1 %13, label %14, label %33

14:                                               ; preds = %3
  br label %15

15:                                               ; preds = %14
  br i1 true, label %16, label %18

16:                                               ; preds = %15
  %17 = call zeroext i1 @errstart_cold(i32 noundef 21, ptr noundef null) #8
  br i1 %17, label %20, label %30

18:                                               ; preds = %15
  %19 = call zeroext i1 @errstart(i32 noundef 21, ptr noundef null)
  br i1 %19, label %20, label %30

20:                                               ; preds = %18, %16
  %21 = call i32 @errcode(i32 noundef 67137668)
  %22 = load ptr, ptr %5, align 8
  %23 = call ptr @TypeNameToString(ptr noundef %22)
  %24 = call i32 (ptr, ...) @errmsg(ptr noundef @.str.6, ptr noundef %23)
  %25 = load ptr, ptr %4, align 8
  %26 = load ptr, ptr %5, align 8
  %27 = getelementptr inbounds nuw %struct.TypeName, ptr %26, i32 0, i32 8
  %28 = load i32, ptr %27, align 8
  %29 = call i32 @parser_errposition(ptr noundef %25, i32 noundef %28)
  call void @errfinish(ptr noundef @.str.1, i32 noundef 274, ptr noundef @__func__.typenameType)
  br label %30

30:                                               ; preds = %20, %18, %16
  unreachable

31:                                               ; No predecessors!
  br label %32

32:                                               ; preds = %31
  br label %33

33:                                               ; preds = %32, %3
  %34 = load ptr, ptr %7, align 8
  %35 = call ptr @GETSTRUCT(ptr noundef %34)
  %36 = getelementptr inbounds nuw %struct.FormData_pg_type, ptr %35, i32 0, i32 9
  %37 = load i8, ptr %36, align 2, !range !4, !noundef !5
  %38 = trunc i8 %37 to i1
  br i1 %38, label %58, label %39

39:                                               ; preds = %33
  br label %40

40:                                               ; preds = %39
  br i1 true, label %41, label %43

41:                                               ; preds = %40
  %42 = call zeroext i1 @errstart_cold(i32 noundef 21, ptr noundef null) #8
  br i1 %42, label %45, label %55

43:                                               ; preds = %40
  %44 = call zeroext i1 @errstart(i32 noundef 21, ptr noundef null)
  br i1 %44, label %45, label %55

45:                                               ; preds = %43, %41
  %46 = call i32 @errcode(i32 noundef 67137668)
  %47 = load ptr, ptr %5, align 8
  %48 = call ptr @TypeNameToString(ptr noundef %47)
  %49 = call i32 (ptr, ...) @errmsg(ptr noundef @.str.7, ptr noundef %48)
  %50 = load ptr, ptr %4, align 8
  %51 = load ptr, ptr %5, align 8
  %52 = getelementptr inbounds nuw %struct.TypeName, ptr %51, i32 0, i32 8
  %53 = load i32, ptr %52, align 8
  %54 = call i32 @parser_errposition(ptr noundef %50, i32 noundef %53)
  call void @errfinish(ptr noundef @.str.1, i32 noundef 280, ptr noundef @__func__.typenameType)
  br label %55

55:                                               ; preds = %45, %43, %41
  unreachable

56:                                               ; No predecessors!
  br label %57

57:                                               ; preds = %56
  br label %58

58:                                               ; preds = %57, %33
  %59 = load ptr, ptr %7, align 8
  call void @llvm.lifetime.end.p0(i64 8, ptr %7) #7
  ret ptr %59
}