; Function Attrs: nounwind uwtable
define dso_local nonnull ptr @typenameType(ptr noundef %0, ptr noundef readonly captures(none) %1, ptr noundef captures(address_is_null) %2) local_unnamed_addr #0 {
  %4 = tail call ptr @LookupTypeNameExtended(ptr noundef %0, ptr noundef readonly %1, ptr noundef %2, i1 noundef zeroext true, i1 noundef zeroext false)
  %5 = icmp eq ptr %4, null
  br i1 %5, label %6, label %14

6:                                                ; preds = %3
  %7 = tail call zeroext i1 @errstart_cold(i32 noundef 21, ptr noundef null) #8
  tail call void @llvm.assume(i1 %7)
  %8 = tail call i32 @errcode(i32 noundef 67137668) #7
  %9 = tail call ptr @TypeNameToString(ptr noundef %1)
  %10 = tail call i32 (ptr, ...) @errmsg(ptr noundef nonnull @.str.6, ptr noundef %9) #7
  %11 = getelementptr inbounds nuw i8, ptr %1, i64 48
  %12 = load i32, ptr %11, align 8
  %13 = tail call i32 @parser_errposition(ptr noundef %0, i32 noundef %12) #7
  tail call void @errfinish(ptr noundef nonnull @.str.1, i32 noundef 274, ptr noundef nonnull @__func__.typenameType) #7
  unreachable

14:                                               ; preds = %3
  %15 = getelementptr i8, ptr %4, i64 16
  %.val = load ptr, ptr %15, align 8
  %16 = getelementptr inbounds nuw i8, ptr %.val, i64 22
  %17 = load i8, ptr %16, align 2
  %18 = zext i8 %17 to i64
  %19 = getelementptr inbounds nuw i8, ptr %.val, i64 %18
  %20 = getelementptr inbounds nuw i8, ptr %19, i64 82
  %21 = load i8, ptr %20, align 2, !range !4, !noundef !5
  %22 = trunc nuw i8 %21 to i1
  br i1 %22, label %31, label %23

23:                                               ; preds = %14
  %24 = tail call zeroext i1 @errstart_cold(i32 noundef 21, ptr noundef null) #8
  tail call void @llvm.assume(i1 %24)
  %25 = tail call i32 @errcode(i32 noundef 67137668) #7
  %26 = tail call ptr @TypeNameToString(ptr noundef %1)
  %27 = tail call i32 (ptr, ...) @errmsg(ptr noundef nonnull @.str.7, ptr noundef %26) #7
  %28 = getelementptr inbounds nuw i8, ptr %1, i64 48
  %29 = load i32, ptr %28, align 8
  %30 = tail call i32 @parser_errposition(ptr noundef %0, i32 noundef %29) #7
  tail call void @errfinish(ptr noundef nonnull @.str.1, i32 noundef 280, ptr noundef nonnull @__func__.typenameType) #7
  unreachable

31:                                               ; preds = %14
  ret ptr %4
}